; Function Attrs: mustprogress nounwind uwtable
define noundef zeroext i1 @_ZNK32pxrInternal_v0_24__pxrReserved__14SdfPathPattern18HasTrailingStretchEv(ptr nocapture noundef nonnull readonly align 8 dereferenceable(57) %0) local_unnamed_addr #2 align 2 {
  %2 = getelementptr inbounds nuw i8, ptr %0, i64 56
  %3 = load i8, ptr %2, align 8
  %4 = trunc i8 %3 to i1
  br i1 %4, label %_ZNK32pxrInternal_v0_24__pxrReserved__14SdfPathPattern9Component9IsStretchEv.exit, label %5

5:                                                ; preds = %1
  %6 = getelementptr inbounds nuw i8, ptr %0, i64 8
  %7 = load ptr, ptr %6, align 8
  %8 = getelementptr inbounds i8, ptr %0, i64 16
  %9 = load ptr, ptr %8, align 8
  %10 = icmp eq ptr %7, %9
  br i1 %10, label %_ZNK32pxrInternal_v0_24__pxrReserved__14SdfPathPattern9Component9IsStretchEv.exit, label %11

11:                                               ; preds = %5
  %12 = getelementptr inbounds i8, ptr %9, i64 -8
  %13 = load i32, ptr %12, align 8
  %14 = icmp eq i32 %13, -1
  br i1 %14, label %15, label %_ZNK32pxrInternal_v0_24__pxrReserved__14SdfPathPattern9Component9IsStretchEv.exit

15:                                               ; preds = %11
  %16 = getelementptr inbounds i8, ptr %9, i64 -40
  %17 = tail call noundef zeroext i1 @_ZNKSt7__cxx1112basic_stringIcSt11char_traitsIcESaIcEE5emptyEv(ptr noundef nonnull align 8 dereferenceable(32) %16) #17
  br label %_ZNK32pxrInternal_v0_24__pxrReserved__14SdfPathPattern9Component9IsStretchEv.exit

_ZNK32pxrInternal_v0_24__pxrReserved__14SdfPathPattern9Component9IsStretchEv.exit: ; preds = %15, %11, %5, %1
  %18 = phi i1 [ false, %5 ], [ false, %1 ], [ false, %11 ], [ %17, %15 ]
  ret i1 %18
}